; ModuleID = '35/1463.c'
source_filename = "35/1463.c"
target datalayout = "e-m:e-p270:32:32-p271:32:32-p272:64:64-i64:64-f80:128-n8:16:32:64-S128"
target triple = "x86_64-pc-linux-gnu"

@.str = private unnamed_addr constant [7 x i8] c"%d,%d\0A\00", align 1
@.str.1 = private unnamed_addr constant [3 x i8] c"%d\00", align 1
@.str.2 = private unnamed_addr constant [7 x i8] c"%d+%d\0A\00", align 1
@.str.3 = private unnamed_addr constant [3 x i8] c"No\00", align 1

; Function Attrs: noinline nounwind uwtable
define dso_local i32 @main() #0 {
  %1 = alloca i32, align 4
  %2 = alloca i32, align 4
  %3 = alloca i32, align 4
  %4 = alloca i32, align 4
  %5 = alloca i32, align 4
  %6 = alloca i32, align 4
  %7 = alloca i32, align 4
  %8 = alloca i32, align 4
  %9 = alloca i32, align 4
  %10 = alloca i32, align 4
  %11 = alloca i32, align 4
  %12 = alloca [8 x [8 x i32]], align 16
  store i32 0, i32* %1, align 4
  %13 = call i32 (i8*, ...) @__isoc99_scanf(i8* getelementptr inbounds ([7 x i8], [7 x i8]* @.str, i64 0, i64 0), i32* %4, i32* %5)
  store i32 0, i32* %2, align 4
  br label %14

14:                                               ; preds = %35, %0
  %15 = load i32, i32* %2, align 4
  %16 = load i32, i32* %4, align 4
  %17 = icmp slt i32 %15, %16
  br i1 %17, label %18, label %38

18:                                               ; preds = %14
  store i32 0, i32* %3, align 4
  br label %19

19:                                               ; preds = %31, %18
  %20 = load i32, i32* %3, align 4
  %21 = load i32, i32* %5, align 4
  %22 = icmp slt i32 %20, %21
  br i1 %22, label %23, label %34

23:                                               ; preds = %19
  %24 = load i32, i32* %2, align 4
  %25 = sext i32 %24 to i64
  %26 = getelementptr inbounds [8 x [8 x i32]], [8 x [8 x i32]]* %12, i64 0, i64 %25
  %27 = load i32, i32* %3, align 4
  %28 = sext i32 %27 to i64
  %29 = getelementptr inbounds [8 x i32], [8 x i32]* %26, i64 0, i64 %28
  %30 = call i32 (i8*, ...) @__isoc99_scanf(i8* getelementptr inbounds ([3 x i8], [3 x i8]* @.str.1, i64 0, i64 0), i32* %29)
  br label %31

31:                                               ; preds = %23
  %32 = load i32, i32* %3, align 4
  %33 = add nsw i32 %32, 1
  store i32 %33, i32* %3, align 4
  br label %19

34:                                               ; preds = %19
  br label %35

35:                                               ; preds = %34
  %36 = load i32, i32* %2, align 4
  %37 = add nsw i32 %36, 1
  store i32 %37, i32* %2, align 4
  br label %14

38:                                               ; preds = %14
  store i32 -1, i32* %7, align 4
  store i32 -1, i32* %8, align 4
  store i32 0, i32* %2, align 4
  br label %39

39:                                               ; preds = %141, %38
  %40 = load i32, i32* %2, align 4
  %41 = load i32, i32* %4, align 4
  %42 = icmp slt i32 %40, %41
  br i1 %42, label %43, label %144

43:                                               ; preds = %39
  %44 = load i32, i32* %2, align 4
  store i32 %44, i32* %6, align 4
  %45 = load i32, i32* %6, align 4
  %46 = sext i32 %45 to i64
  %47 = getelementptr inbounds [8 x [8 x i32]], [8 x [8 x i32]]* %12, i64 0, i64 %46
  %48 = getelementptr inbounds [8 x i32], [8 x i32]* %47, i64 0, i64 0
  %49 = load i32, i32* %48, align 16
  store i32 %49, i32* %10, align 4
  store i32 0, i32* %3, align 4
  br label %50

50:                                               ; preds = %73, %43
  %51 = load i32, i32* %3, align 4
  %52 = load i32, i32* %5, align 4
  %53 = icmp slt i32 %51, %52
  br i1 %53, label %54, label %76

54:                                               ; preds = %50
  %55 = load i32, i32* %6, align 4
  %56 = sext i32 %55 to i64
  %57 = getelementptr inbounds [8 x [8 x i32]], [8 x [8 x i32]]* %12, i64 0, i64 %56
  %58 = load i32, i32* %3, align 4
  %59 = sext i32 %58 to i64
  %60 = getelementptr inbounds [8 x i32], [8 x i32]* %57, i64 0, i64 %59
  %61 = load i32, i32* %60, align 4
  %62 = load i32, i32* %10, align 4
  %63 = icmp sgt i32 %61, %62
  br i1 %63, label %64, label %72

64:                                               ; preds = %54
  %65 = load i32, i32* %6, align 4
  %66 = sext i32 %65 to i64
  %67 = getelementptr inbounds [8 x [8 x i32]], [8 x [8 x i32]]* %12, i64 0, i64 %66
  %68 = load i32, i32* %3, align 4
  %69 = sext i32 %68 to i64
  %70 = getelementptr inbounds [8 x i32], [8 x i32]* %67, i64 0, i64 %69
  %71 = load i32, i32* %70, align 4
  store i32 %71, i32* %10, align 4
  br label %72

72:                                               ; preds = %64, %54
  br label %73

73:                                               ; preds = %72
  %74 = load i32, i32* %3, align 4
  %75 = add nsw i32 %74, 1
  store i32 %75, i32* %3, align 4
  br label %50

76:                                               ; preds = %50
  store i32 0, i32* %3, align 4
  br label %77

77:                                               ; preds = %137, %76
  %78 = load i32, i32* %3, align 4
  %79 = load i32, i32* %5, align 4
  %80 = icmp slt i32 %78, %79
  br i1 %80, label %81, label %140

81:                                               ; preds = %77
  store i32 -1, i32* %9, align 4
  %82 = load i32, i32* %6, align 4
  %83 = sext i32 %82 to i64
  %84 = getelementptr inbounds [8 x [8 x i32]], [8 x [8 x i32]]* %12, i64 0, i64 %83
  %85 = load i32, i32* %3, align 4
  %86 = sext i32 %85 to i64
  %87 = getelementptr inbounds [8 x i32], [8 x i32]* %84, i64 0, i64 %86
  %88 = load i32, i32* %87, align 4
  %89 = load i32, i32* %10, align 4
  %90 = icmp eq i32 %88, %89
  br i1 %90, label %91, label %136

91:                                               ; preds = %81
  %92 = load i32, i32* %10, align 4
  store i32 %92, i32* %9, align 4
  store i32 0, i32* %11, align 4
  br label %93

93:                                               ; preds = %116, %91
  %94 = load i32, i32* %11, align 4
  %95 = load i32, i32* %4, align 4
  %96 = icmp slt i32 %94, %95
  br i1 %96, label %97, label %119

97:                                               ; preds = %93
  %98 = load i32, i32* %11, align 4
  %99 = sext i32 %98 to i64
  %100 = getelementptr inbounds [8 x [8 x i32]], [8 x [8 x i32]]* %12, i64 0, i64 %99
  %101 = load i32, i32* %3, align 4
  %102 = sext i32 %101 to i64
  %103 = getelementptr inbounds [8 x i32], [8 x i32]* %100, i64 0, i64 %102
  %104 = load i32, i32* %103, align 4
  %105 = load i32, i32* %9, align 4
  %106 = icmp slt i32 %104, %105
  br i1 %106, label %107, label %115

107:                                              ; preds = %97
  %108 = load i32, i32* %11, align 4
  %109 = sext i32 %108 to i64
  %110 = getelementptr inbounds [8 x [8 x i32]], [8 x [8 x i32]]* %12, i64 0, i64 %109
  %111 = load i32, i32* %3, align 4
  %112 = sext i32 %111 to i64
  %113 = getelementptr inbounds [8 x i32], [8 x i32]* %110, i64 0, i64 %112
  %114 = load i32, i32* %113, align 4
  store i32 %114, i32* %9, align 4
  br label %115

115:                                              ; preds = %107, %97
  br label %116

116:                                              ; preds = %115
  %117 = load i32, i32* %11, align 4
  %118 = add nsw i32 %117, 1
  store i32 %118, i32* %11, align 4
  br label %93

119:                                              ; preds = %93
  %120 = load i32, i32* %9, align 4
  %121 = load i32, i32* %6, align 4
  %122 = sext i32 %121 to i64
  %123 = getelementptr inbounds [8 x [8 x i32]], [8 x [8 x i32]]* %12, i64 0, i64 %122
  %124 = load i32, i32* %3, align 4
  %125 = sext i32 %124 to i64
  %126 = getelementptr inbounds [8 x i32], [8 x i32]* %123, i64 0, i64 %125
  %127 = load i32, i32* %126, align 4
  %128 = icmp eq i32 %120, %127
  br i1 %128, label %129, label %135

129:                                              ; preds = %119
  %130 = load i32, i32* %6, align 4
  store i32 %130, i32* %7, align 4
  %131 = load i32, i32* %3, align 4
  store i32 %131, i32* %8, align 4
  %132 = load i32, i32* %7, align 4
  %133 = load i32, i32* %8, align 4
  %134 = call i32 (i8*, ...) @printf(i8* getelementptr inbounds ([7 x i8], [7 x i8]* @.str.2, i64 0, i64 0), i32 %132, i32 %133)
  br label %135

135:                                              ; preds = %129, %119
  br label %136

136:                                              ; preds = %135, %81
  br label %137

137:                                              ; preds = %136
  %138 = load i32, i32* %3, align 4
  %139 = add nsw i32 %138, 1
  store i32 %139, i32* %3, align 4
  br label %77

140:                                              ; preds = %77
  br label %141

141:                                              ; preds = %140
  %142 = load i32, i32* %2, align 4
  %143 = add nsw i32 %142, 1
  store i32 %143, i32* %2, align 4
  br label %39

144:                                              ; preds = %39
  %145 = load i32, i32* %7, align 4
  %146 = icmp eq i32 %145, -1
  br i1 %146, label %147, label %149

147:                                              ; preds = %144
  %148 = call i32 (i8*, ...) @printf(i8* getelementptr inbounds ([3 x i8], [3 x i8]* @.str.3, i64 0, i64 0))
  br label %149

149:                                              ; preds = %147, %144
  ret i32 0
}

declare dso_local i32 @__isoc99_scanf(i8*, ...) #1

declare dso_local i32 @printf(i8*, ...) #1


!llvm.module.flags = !{!0}
!llvm.ident = !{!1}

!0 = !{i32 1, !"wchar_size", i32 4}
!1 = !{!"clang version 10.0.0-4ubuntu1 "}
